target datalayout = "e-m:e-p270:32:32-p271:32:32-p272:64:64-i64:64-i128:128-f80:128-n8:16:32:64-S128"
target triple = "x86_64-pc-linux-gnu"

%"class.std::__cxx11::basic_string" = type { %"struct.std::__cxx11::basic_string<char>::_Alloc_hider", i64, %union.anon }
%"struct.std::__cxx11::basic_string<char>::_Alloc_hider" = type { ptr }
%union.anon = type { i64, [8 x i8] }
%"class.dmlc::io::IndexedRecordIOSplitter" = type { %"class.dmlc::io::InputSplitBase", %"class.std::vector.13", %"class.std::vector", i8, i64, i64, i64, i64, i64, i32, %"class.std::mersenne_twister_engine" }
%"class.dmlc::io::InputSplitBase" = type { %"class.dmlc::InputSplit", ptr, %"class.std::vector", i64, i64, i64, %"class.std::vector.0", ptr, i64, i64, %"struct.dmlc::io::InputSplitBase::Chunk", i64, i64, %"class.std::__cxx11::basic_string" }
%"class.dmlc::InputSplit" = type { ptr }
%"class.std::vector.0" = type { %"struct.std::_Vector_base.1" }
%"struct.std::_Vector_base.1" = type { %"struct.std::_Vector_base<dmlc::io::FileInfo, std::allocator<dmlc::io::FileInfo>>::_Vector_impl" }
%"struct.std::_Vector_base<dmlc::io::FileInfo, std::allocator<dmlc::io::FileInfo>>::_Vector_impl" = type { %"struct.std::_Vector_base<dmlc::io::FileInfo, std::allocator<dmlc::io::FileInfo>>::_Vector_impl_data" }
%"struct.std::_Vector_base<dmlc::io::FileInfo, std::allocator<dmlc::io::FileInfo>>::_Vector_impl_data" = type { ptr, ptr, ptr }
%"struct.dmlc::io::InputSplitBase::Chunk" = type { ptr, ptr, %"class.std::vector.5" }
%"class.std::vector.5" = type { %"struct.std::_Vector_base.6" }
%"struct.std::_Vector_base.6" = type { %"struct.std::_Vector_base<unsigned int, std::allocator<unsigned int>>::_Vector_impl" }
%"struct.std::_Vector_base<unsigned int, std::allocator<unsigned int>>::_Vector_impl" = type { %"struct.std::_Vector_base<unsigned int, std::allocator<unsigned int>>::_Vector_impl_data" }
%"struct.std::_Vector_base<unsigned int, std::allocator<unsigned int>>::_Vector_impl_data" = type { ptr, ptr, ptr }
%"class.std::vector.13" = type { %"struct.std::_Vector_base.14" }
%"struct.std::_Vector_base.14" = type { %"struct.std::_Vector_base<std::pair<unsigned long, unsigned long>, std::allocator<std::pair<unsigned long, unsigned long>>>::_Vector_impl" }
%"struct.std::_Vector_base<std::pair<unsigned long, unsigned long>, std::allocator<std::pair<unsigned long, unsigned long>>>::_Vector_impl" = type { %"struct.std::_Vector_base<std::pair<unsigned long, unsigned long>, std::allocator<std::pair<unsigned long, unsigned long>>>::_Vector_impl_data" }
%"struct.std::_Vector_base<std::pair<unsigned long, unsigned long>, std::allocator<std::pair<unsigned long, unsigned long>>>::_Vector_impl_data" = type { ptr, ptr, ptr }
%"class.std::vector" = type { %"struct.std::_Vector_base" }
%"struct.std::_Vector_base" = type { %"struct.std::_Vector_base<unsigned long, std::allocator<unsigned long>>::_Vector_impl" }
%"struct.std::_Vector_base<unsigned long, std::allocator<unsigned long>>::_Vector_impl" = type { %"struct.std::_Vector_base<unsigned long, std::allocator<unsigned long>>::_Vector_impl_data" }
%"struct.std::_Vector_base<unsigned long, std::allocator<unsigned long>>::_Vector_impl_data" = type { ptr, ptr, ptr }
%"class.std::mersenne_twister_engine" = type { [624 x i64], i64 }

; Function Attrs: mustprogress uwtable
define noundef zeroext i1 @_ZN4dmlc2io23IndexedRecordIOSplitter9NextChunkEPNS_10InputSplit4BlobE(ptr noundef nonnull align 8 dereferenceable(5304) %0, ptr noundef %1) unnamed_addr #4 align 2 {
  %3 = alloca ptr, align 8
  %4 = alloca ptr, align 8
  store ptr %0, ptr %3, align 8, !tbaa !3
  store ptr %1, ptr %4, align 8, !tbaa !117
  %5 = load ptr, ptr %3, align 8
  %6 = load ptr, ptr %4, align 8, !tbaa !117
  %7 = getelementptr inbounds nuw %"class.dmlc::io::IndexedRecordIOSplitter", ptr %5, i32 0, i32 7
  %8 = load i64, ptr %7, align 8, !tbaa !128
  %9 = load ptr, ptr %5, align 8, !tbaa !53
  %10 = getelementptr inbounds ptr, ptr %9, i64 5
  %11 = load ptr, ptr %10, align 8
  %12 = call noundef zeroext i1 %11(ptr noundef nonnull align 8 dereferenceable(5304) %5, ptr noundef %6, i64 noundef %8)
  ret i1 %12
}