; Function Attrs: mustprogress uwtable
define noundef zeroext i1 @_ZN4dmlc2io23IndexedRecordIOSplitter9NextChunkEPNS_10InputSplit4BlobE(ptr noundef nonnull align 8 dereferenceable(5304) %0, ptr noundef %1) unnamed_addr #3 align 2 {
  %3 = getelementptr inbounds nuw i8, ptr %0, i64 280
  %4 = load i64, ptr %3, align 8, !tbaa !133
  %5 = load ptr, ptr %0, align 8, !tbaa !61
  %6 = getelementptr inbounds nuw i8, ptr %5, i64 40
  %7 = load ptr, ptr %6, align 8
  %8 = tail call noundef zeroext i1 %7(ptr noundef nonnull align 8 dereferenceable(5304) %0, ptr noundef %1, i64 noundef %4)
  ret i1 %8
}